Certificate:
    Data:
        Version: 3 (0x2)
        Serial Number:
            39:82:2b:5e:d4:93:89:75:76:1e:97:b4:aa:a7:44:f3
        Signature Algorithm: sha256WithRSAEncryption
        Issuer: CN=mouad
        Validity
            Not Before: Dec 30 14:54:35 2025 GMT
            Not After : Apr  3 14:54:35 2028 GMT
        Subject: CN=server
        Subject Public Key Info:
            Public Key Algorithm: rsaEncryption
                Public-Key: (2048 bit)
                Modulus:
                    00:b3:68:2c:92:6d:ab:9d:79:24:da:82:1f:a0:e0:
                    ba:c5:f4:f7:3b:02:c5:fc:35:39:98:08:04:20:cf:
                    e8:d8:7b:9a:50:2a:39:93:78:3b:9d:62:ab:d0:79:
                    89:97:7b:a8:4d:61:67:24:bc:e2:83:fe:2f:55:a4:
                    44:77:05:95:b5:70:a1:d7:f1:e3:60:16:b5:0d:c8:
                    b2:19:2e:b2:74:a7:7a:c4:67:7d:8f:c8:cb:4b:4c:
                    af:87:d2:cf:d2:d4:2a:87:ea:a2:e5:36:ca:0e:ac:
                    af:cb:c2:1a:e9:e9:c3:68:8a:cb:6c:7a:da:3a:34:
                    5e:4b:61:09:ff:0c:75:e9:d5:33:11:e0:c1:36:ea:
                    c2:8a:a8:25:ac:fa:6b:b2:bf:ec:4a:da:17:68:fa:
                    58:77:79:72:e9:81:2c:2e:c6:46:0b:b0:29:91:d4:
                    27:44:b3:bc:cd:44:31:42:23:d3:3a:4d:6d:0d:0f:
                    ec:8c:f4:3c:db:d9:95:98:98:7d:39:73:3d:e1:28:
                    70:34:29:3e:16:15:4d:6b:5e:76:c2:c4:db:93:03:
                    2f:68:53:fd:70:de:91:21:13:87:0f:b0:3f:86:b0:
                    5f:03:f2:a2:28:90:f4:51:43:9b:c3:8b:6b:d8:d0:
                    73:9f:5d:48:bd:08:90:bb:ba:9d:d8:30:7e:5c:01:
                    87:61
                Exponent: 65537 (0x10001)
        X509v3 extensions:
            X509v3 Basic Constraints: 
                CA:FALSE
            X509v3 Subject Key Identifier: 
                9A:87:42:ED:3C:34:CA:1A:A1:4B:03:B8:AD:2C:9F:1F:12:05:F4:74
            X509v3 Authority Key Identifier: 
                keyid:ED:8F:8F:89:45:AB:31:3E:1A:97:61:C3:B4:F1:3A:52:3A:A1:BF:58
                DirName:/CN=mouad
                serial:40:E6:CE:DB:85:58:0E:D8:0E:D5:53:8D:55:0D:E3:DA:60:AA:AE:B8
            X509v3 Extended Key Usage: 
                TLS Web Server Authentication
            X509v3 Key Usage: 
                Digital Signature, Key Encipherment
            X509v3 Subject Alternative Name: 
                DNS:server
    Signature Algorithm: sha256WithRSAEncryption
    Signature Value:
        24:70:55:69:14:fa:87:11:cb:7c:00:1e:90:dd:89:33:82:d6:
        a0:4b:a6:3e:91:9f:59:c3:e9:e2:a6:48:20:06:98:ef:89:ed:
        25:c1:64:e6:ad:2c:51:b5:69:40:65:9a:cc:f9:d1:9b:89:2d:
        57:5d:83:d8:55:2e:e7:e2:18:15:0f:0c:54:55:6e:cc:17:c1:
        f6:19:2a:ab:b6:d1:fa:97:4c:80:98:af:b3:3b:9e:8d:d7:f3:
        5d:c3:6a:d6:d7:8e:b5:d5:32:0e:8b:1d:c9:75:e5:3b:be:02:
        e3:3d:6f:29:58:62:b4:f2:15:7e:ca:97:6f:ad:e7:ac:d2:45:
        3a:27:e1:a5:1a:06:55:02:e0:c8:9d:dc:89:17:49:b4:c9:9e:
        3b:91:08:a7:37:fd:02:f4:c6:7d:25:83:57:40:c4:22:a9:77:
        8c:44:ad:51:05:65:21:9e:e4:59:6c:b6:b2:38:db:02:6e:27:
        07:79:55:7f:c8:75:97:25:16:fc:e8:d4:2c:d9:9b:e6:d6:aa:
        b4:55:d0:81:ef:ea:00:cc:75:96:8b:7f:f8:0c:7f:a9:13:45:
        04:9d:71:2f:17:62:8f:53:a3:c6:03:cf:f1:be:e6:d0:b6:f4:
        87:1f:8a:35:1d:c2:9a:44:d5:90:eb:b8:f7:6d:53:f6:a7:05:
        46:9d:57:59
-----BEGIN CERTIFICATE-----
MIIDWzCCAkOgAwIBAgIQOYIrXtSTiXV2Hpe0qqdE8zANBgkqhkiG9w0BAQsFADAQ
MQ4wDAYDVQQDDAVtb3VhZDAeFw0yNTEyMzAxNDU0MzVaFw0yODA0MDMxNDU0MzVa
MBExDzANBgNVBAMMBnNlcnZlcjCCASIwDQYJKoZIhvcNAQEBBQADggEPADCCAQoC
ggEBALNoLJJtq515JNqCH6DgusX09zsCxfw1OZgIBCDP6Nh7mlAqOZN4O51iq9B5
iZd7qE1hZyS84oP+L1WkRHcFlbVwodfx42AWtQ3IshkusnSnesRnfY/Iy0tMr4fS
z9LUKofqouU2yg6sr8vCGunpw2iKy2x62jo0XkthCf8MdenVMxHgwTbqwoqoJaz6
a7K/7EraF2j6WHd5cumBLC7GRguwKZHUJ0SzvM1EMUIj0zpNbQ0P7Iz0PNvZlZiY
fTlzPeEocDQpPhYVTWtedsLE25MDL2hT/XDekSEThw+wP4awXwPyoiiQ9FFDm8OL
a9jQc59dSL0IkLu6ndgwflwBh2ECAwEAAaOBrzCBrDAJBgNVHRMEAjAAMB0GA1Ud
DgQWBBSah0LtPDTKGqFLA7itLJ8fEgX0dDBLBgNVHSMERDBCgBTtj4+JRasxPhqX
YcO08TpSOqG/WKEUpBIwEDEOMAwGA1UEAwwFbW91YWSCFEDmztuFWA7YDtVTjVUN
49pgqq64MBMGA1UdJQQMMAoGCCsGAQUFBwMBMAsGA1UdDwQEAwIFoDARBgNVHREE
CjAIggZzZXJ2ZXIwDQYJKoZIhvcNAQELBQADggEBACRwVWkU+ocRy3wAHpDdiTOC
1qBLpj6Rn1nD6eKmSCAGmO+J7SXBZOatLFG1aUBlmsz50ZuJLVddg9hVLufiGBUP
DFRVbswXwfYZKqu20fqXTICYr7M7no3X813DatbXjrXVMg6LHcl15Tu+AuM9bylY
YrTyFX7Kl2+t56zSRTon4aUaBlUC4Mid3IkXSbTJnjuRCKc3/QL0xn0lg1dAxCKp
d4xErVEFZSGe5FlstrI42wJuJwd5VX/IdZclFvzo1CzZm+bWqrRV0IHv6gDMdZaL
f/gMf6kTRQSdcS8XYo9To8YDz/G+5tC29IcfijUdwppE1ZDruPdtU/anBUadV1k=
-----END CERTIFICATE-----
