Certificate:
    Data:
        Version: 3 (0x2)
        Serial Number:
            c0:6f:a8:c8:28:50:0e:49:9a:e2:a3:65:c1:95:de:36
        Signature Algorithm: sha256WithRSAEncryption
        Issuer: CN=mouad
        Validity
            Not Before: Dec 30 14:54:42 2025 GMT
            Not After : Apr  3 14:54:42 2028 GMT
        Subject: CN=admin
        Subject Public Key Info:
            Public Key Algorithm: rsaEncryption
                Public-Key: (2048 bit)
                Modulus:
                    00:d6:32:a7:ae:c3:b1:03:b0:60:ae:b3:3f:47:f2:
                    13:eb:2e:30:f5:25:31:01:91:9e:53:33:00:eb:60:
                    e1:3a:82:a6:11:f8:0e:88:35:9c:48:b8:6f:cd:c3:
                    31:46:de:42:1e:31:79:e6:c4:5e:a1:98:2a:2d:2a:
                    4c:83:0e:9f:eb:9e:a9:b2:cc:93:e2:58:03:71:fa:
                    25:ba:61:f8:72:63:81:2f:d2:da:a1:7b:71:d8:52:
                    25:3f:31:42:70:c2:76:d6:08:a6:3e:2e:db:4f:f3:
                    b6:42:33:c1:4e:59:89:76:58:ea:66:ab:d2:1d:d6:
                    0e:a2:58:12:31:34:78:1b:82:1d:9f:ce:c5:7e:87:
                    c0:b9:0d:ff:36:21:28:f8:dd:b5:b7:f1:52:26:e0:
                    bf:64:12:25:72:af:dd:9d:29:61:2a:90:c9:45:3c:
                    a1:5d:0e:46:b7:c9:9e:cc:41:bd:0c:08:35:a8:d2:
                    bd:44:aa:3c:cb:bd:63:ca:4c:ba:04:25:81:af:dd:
                    70:c9:7f:f9:92:f5:db:65:97:8c:2a:4e:4e:be:68:
                    1b:63:60:66:68:30:f7:d6:0c:7d:86:ef:ac:ff:9e:
                    63:4e:5b:48:9f:07:fe:80:80:76:10:98:fd:4a:2b:
                    05:24:31:d5:cf:25:92:b1:ec:99:53:e6:d3:02:90:
                    7b:27
                Exponent: 65537 (0x10001)
        X509v3 extensions:
            X509v3 Basic Constraints: 
                CA:FALSE
            X509v3 Subject Key Identifier: 
                D0:01:12:B5:43:21:DD:16:01:6B:41:E0:A5:BA:09:24:97:88:60:F0
            X509v3 Authority Key Identifier: 
                keyid:ED:8F:8F:89:45:AB:31:3E:1A:97:61:C3:B4:F1:3A:52:3A:A1:BF:58
                DirName:/CN=mouad
                serial:40:E6:CE:DB:85:58:0E:D8:0E:D5:53:8D:55:0D:E3:DA:60:AA:AE:B8
            X509v3 Extended Key Usage: 
                TLS Web Client Authentication
            X509v3 Key Usage: 
                Digital Signature
    Signature Algorithm: sha256WithRSAEncryption
    Signature Value:
        67:fb:ec:89:29:63:af:86:e0:a7:33:f5:09:31:d6:f8:95:6e:
        83:55:af:f6:92:76:4f:00:41:a3:df:1a:ad:79:0c:36:22:43:
        bf:8c:f7:e8:68:3e:4d:49:34:54:2d:9d:b0:5b:05:77:b3:6a:
        81:f1:40:fe:f9:75:e0:cd:17:e6:e6:16:c1:4f:17:f9:f0:34:
        39:f8:e7:0a:7d:6d:f1:0d:58:44:85:91:d0:45:1d:6a:97:94:
        0d:96:7f:63:40:59:72:67:7c:66:13:09:aa:eb:c4:e3:de:fe:
        d7:a1:b7:6e:6e:cb:37:f0:b6:ba:77:ee:d1:6f:5b:ee:5c:ba:
        e5:93:47:2b:be:46:92:3e:72:58:db:3d:e1:14:6e:f2:92:1a:
        50:1e:07:a3:4f:63:1b:0a:11:04:d0:f4:b6:59:ad:59:79:0a:
        85:0b:24:69:f9:4e:3f:a3:e2:e6:74:e3:ca:83:29:88:ac:ca:
        b9:86:1a:e4:35:3a:26:34:44:e2:3e:ee:30:ef:9d:0a:2f:83:
        e4:f5:74:8c:37:86:4c:cf:63:ac:8f:1b:0c:25:c9:6d:a9:0b:
        7f:dc:40:15:09:d4:dd:92:22:99:b6:6c:f9:11:30:b4:29:c2:
        c3:91:00:e4:f6:83:ff:2c:c1:b9:1b:47:6a:98:24:6d:a9:c5:
        17:57:9d:f1
-----BEGIN CERTIFICATE-----
MIIDSDCCAjCgAwIBAgIRAMBvqMgoUA5JmuKjZcGV3jYwDQYJKoZIhvcNAQELBQAw
EDEOMAwGA1UEAwwFbW91YWQwHhcNMjUxMjMwMTQ1NDQyWhcNMjgwNDAzMTQ1NDQy
WjAQMQ4wDAYDVQQDDAVhZG1pbjCCASIwDQYJKoZIhvcNAQEBBQADggEPADCCAQoC
ggEBANYyp67DsQOwYK6zP0fyE+suMPUlMQGRnlMzAOtg4TqCphH4Dog1nEi4b83D
MUbeQh4xeebEXqGYKi0qTIMOn+ueqbLMk+JYA3H6Jbph+HJjgS/S2qF7cdhSJT8x
QnDCdtYIpj4u20/ztkIzwU5ZiXZY6mar0h3WDqJYEjE0eBuCHZ/OxX6HwLkN/zYh
KPjdtbfxUibgv2QSJXKv3Z0pYSqQyUU8oV0ORrfJnsxBvQwINajSvUSqPMu9Y8pM
ugQlga/dcMl/+ZL122WXjCpOTr5oG2NgZmgw99YMfYbvrP+eY05bSJ8H/oCAdhCY
/UorBSQx1c8lkrHsmVPm0wKQeycCAwEAAaOBnDCBmTAJBgNVHRMEAjAAMB0GA1Ud
DgQWBBTQARK1QyHdFgFrQeClugkkl4hg8DBLBgNVHSMERDBCgBTtj4+JRasxPhqX
YcO08TpSOqG/WKEUpBIwEDEOMAwGA1UEAwwFbW91YWSCFEDmztuFWA7YDtVTjVUN
49pgqq64MBMGA1UdJQQMMAoGCCsGAQUFBwMCMAsGA1UdDwQEAwIHgDANBgkqhkiG
9w0BAQsFAAOCAQEAZ/vsiSljr4bgpzP1CTHW+JVug1Wv9pJ2TwBBo98arXkMNiJD
v4z36Gg+TUk0VC2dsFsFd7NqgfFA/vl14M0X5uYWwU8X+fA0OfjnCn1t8Q1YRIWR
0EUdapeUDZZ/Y0BZcmd8ZhMJquvE497+16G3bm7LN/C2unfu0W9b7ly65ZNHK75G
kj5yWNs94RRu8pIaUB4Ho09jGwoRBND0tlmtWXkKhQskaflOP6Pi5nTjyoMpiKzK
uYYa5DU6JjRE4j7uMO+dCi+D5PV0jDeGTM9jrI8bDCXJbakLf9xAFQnU3ZIimbZs
+REwtCnCw5EA5PaD/yzBuRtHapgkbanFF1ed8Q==
-----END CERTIFICATE-----
